; Function Attrs: mustprogress uwtable
define hidden void @_ZN2pb6solver11clear_watchERNS_10constraintE(ptr noundef nonnull align 8 dereferenceable(1049) %this, ptr noundef nonnull align 8 dereferenceable(64) %c) local_unnamed_addr #3 align 2 {
entry:
  %add.ptr = getelementptr inbounds i8, ptr %this, i64 80
  %vtable = load ptr, ptr %c, align 8
  %vfn = getelementptr inbounds i8, ptr %vtable, i64 16
  %0 = load ptr, ptr %vfn, align 8
  tail call void %0(ptr noundef nonnull align 8 dereferenceable(64) %c, ptr noundef nonnull align 8 dereferenceable(8) %add.ptr)
  ret void
}